target datalayout = "e-m:e-p270:32:32-p271:32:32-p272:64:64-i64:64-i128:128-f80:128-n8:16:32:64-S128"
target triple = "x86_64-pc-linux-gnu"

%struct.H5L_trav_le_t = type { ptr, ptr }

@.str = private unnamed_addr constant [100 x i8] c"generated/home/dtcxzyw/WorkSpace/Projects/compilers/llvm-opt-benchmark/bench/hdf5/hdf5/src/H5Lint.c\00", align 1
@H5E_LINK_g = external global i64, align 8
@H5E_CANTGET_g = external global i64, align 8
@.str.20 = private unnamed_addr constant [31 x i8] c"can't determine if link exists\00", align 1
@__func__.H5L__exists_inter_cb = private unnamed_addr constant [21 x i8] c"H5L__exists_inter_cb\00", align 1

; Function Attrs: nounwind uwtable
define internal i32 @H5L__exists_inter_cb(ptr noundef %0, ptr noundef %1, ptr noundef %2, ptr noundef %3, ptr noundef %4, ptr noundef %5) #0 {
  %7 = alloca ptr, align 8
  %8 = alloca ptr, align 8
  %9 = alloca ptr, align 8
  %10 = alloca ptr, align 8
  %11 = alloca ptr, align 8
  %12 = alloca ptr, align 8
  %13 = alloca ptr, align 8
  %14 = alloca i32, align 4
  %15 = alloca i8, align 1
  %16 = alloca ptr, align 8
  %17 = alloca ptr, align 8
  store ptr %0, ptr %7, align 8
  store ptr %1, ptr %8, align 8
  store ptr %2, ptr %9, align 8
  store ptr %3, ptr %10, align 8
  store ptr %4, ptr %11, align 8
  store ptr %5, ptr %12, align 8
  %18 = load ptr, ptr %11, align 8
  store ptr %18, ptr %13, align 8
  store i32 0, ptr %14, align 4
  store i8 0, ptr %15, align 1
  %19 = load ptr, ptr %9, align 8
  %20 = icmp ne ptr %19, null
  br i1 %20, label %21, label %83

21:                                               ; preds = %6
  %22 = load ptr, ptr %13, align 8
  %23 = getelementptr inbounds %struct.H5L_trav_le_t, ptr %22, i32 0, i32 0
  %24 = load ptr, ptr %23, align 8
  %25 = icmp ne ptr %24, null
  br i1 %25, label %26, label %78

26:                                               ; preds = %21
  %27 = load ptr, ptr %13, align 8
  %28 = getelementptr inbounds %struct.H5L_trav_le_t, ptr %27, i32 0, i32 0
  %29 = load ptr, ptr %28, align 8
  store ptr %29, ptr %17, align 8
  %30 = load ptr, ptr %13, align 8
  %31 = getelementptr inbounds %struct.H5L_trav_le_t, ptr %30, i32 0, i32 0
  %32 = load ptr, ptr %31, align 8
  %33 = call ptr @strchr(ptr noundef %32, i32 noundef 47) #8
  %34 = load ptr, ptr %13, align 8
  %35 = getelementptr inbounds %struct.H5L_trav_le_t, ptr %34, i32 0, i32 0
  store ptr %33, ptr %35, align 8
  %36 = icmp eq ptr null, %33
  br i1 %36, label %37, label %38

37:                                               ; preds = %26
  store ptr @H5L__exists_final_cb, ptr %16, align 8
  br label %55

38:                                               ; preds = %26
  br label %39

39:                                               ; preds = %47, %38
  %40 = load ptr, ptr %13, align 8
  %41 = getelementptr inbounds %struct.H5L_trav_le_t, ptr %40, i32 0, i32 0
  %42 = load ptr, ptr %41, align 8
  store i8 0, ptr %42, align 1
  %43 = load ptr, ptr %13, align 8
  %44 = getelementptr inbounds %struct.H5L_trav_le_t, ptr %43, i32 0, i32 0
  %45 = load ptr, ptr %44, align 8
  %46 = getelementptr inbounds i8, ptr %45, i32 1
  store ptr %46, ptr %44, align 8
  br label %47

47:                                               ; preds = %39
  %48 = load ptr, ptr %13, align 8
  %49 = getelementptr inbounds %struct.H5L_trav_le_t, ptr %48, i32 0, i32 0
  %50 = load ptr, ptr %49, align 8
  %51 = load i8, ptr %50, align 1
  %52 = sext i8 %51 to i32
  %53 = icmp eq i32 47, %52
  br i1 %53, label %39, label %54

54:                                               ; preds = %47
  store ptr @H5L__exists_inter_cb, ptr %16, align 8
  br label %55

55:                                               ; preds = %54, %37
  %56 = load ptr, ptr %10, align 8
  %57 = load ptr, ptr %17, align 8
  %58 = load ptr, ptr %16, align 8
  %59 = load ptr, ptr %13, align 8
  %60 = call i32 @H5G_traverse(ptr noundef %56, ptr noundef %57, i32 noundef 5, ptr noundef %58, ptr noundef %59)
  %61 = icmp slt i32 %60, 0
  br i1 %61, label %62, label %77

62:                                               ; preds = %55
  br label %63

63:                                               ; preds = %62
  br label %64

64:                                               ; preds = %63
  br label %65

65:                                               ; preds = %64
  %66 = load i64, ptr @H5E_LINK_g, align 8
  %67 = load i64, ptr @H5E_CANTGET_g, align 8
  %68 = call i32 (ptr, ptr, i32, i64, i64, ptr, ...) @H5E_printf_stack(ptr noundef @.str, ptr noundef @__func__.H5L__exists_inter_cb, i32 noundef 1644, i64 noundef %66, i64 noundef %67, ptr noundef @.str.20)
  br label %69

69:                                               ; preds = %65
  store i8 1, ptr %15, align 1
  %70 = load i8, ptr %15, align 1
  %71 = trunc i8 %70 to i1
  %72 = zext i1 %71 to i8
  store i8 %72, ptr %15, align 1
  br label %73

73:                                               ; preds = %69
  br label %74

74:                                               ; preds = %73
  store i32 -1, ptr %14, align 4
  br label %89

75:                                               ; No predecessors!
  br label %76

76:                                               ; preds = %75
  br label %77

77:                                               ; preds = %76, %55
  br label %82

78:                                               ; preds = %21
  %79 = load ptr, ptr %13, align 8
  %80 = getelementptr inbounds %struct.H5L_trav_le_t, ptr %79, i32 0, i32 1
  %81 = load ptr, ptr %80, align 8
  store i8 1, ptr %81, align 1
  br label %82

82:                                               ; preds = %78, %77
  br label %87

83:                                               ; preds = %6
  %84 = load ptr, ptr %13, align 8
  %85 = getelementptr inbounds %struct.H5L_trav_le_t, ptr %84, i32 0, i32 1
  %86 = load ptr, ptr %85, align 8
  store i8 0, ptr %86, align 1
  br label %87

87:                                               ; preds = %83, %82
  %88 = load ptr, ptr %12, align 8
  store i32 0, ptr %88, align 4
  br label %89

89:                                               ; preds = %87, %74
  %90 = load i32, ptr %14, align 4
  ret i32 %90
}