; Function Attrs: nounwind uwtable
define internal range(i32 -1, 1) i32 @H5L__exists_inter_cb(ptr nocapture readnone %0, ptr nocapture readnone %1, ptr noundef readnone %2, ptr noundef %3, ptr noundef %4, ptr nocapture noundef writeonly %5) #0 {
  %.not = icmp eq ptr %2, null
  br i1 %.not, label %.sink.split, label %7

7:                                                ; preds = %6
  %8 = load ptr, ptr %4, align 8
  %.not19 = icmp eq ptr %8, null
  br i1 %.not19, label %.sink.split, label %9

9:                                                ; preds = %7
  %10 = tail call ptr @strchr(ptr noundef nonnull dereferenceable(1) %8, i32 noundef 47) #12
  store ptr %10, ptr %4, align 8
  %11 = icmp eq ptr %10, null
  br i1 %11, label %.loopexit, label %.preheader

.preheader:                                       ; preds = %9, %.preheader
  %12 = phi ptr [ %14, %.preheader ], [ %10, %9 ]
  store i8 0, ptr %12, align 1
  %13 = load ptr, ptr %4, align 8
  %14 = getelementptr inbounds i8, ptr %13, i64 1
  store ptr %14, ptr %4, align 8
  %15 = load i8, ptr %14, align 1
  %16 = icmp eq i8 %15, 47
  br i1 %16, label %.preheader, label %.loopexit

.loopexit:                                        ; preds = %.preheader, %9
  %.017 = phi ptr [ @H5L__exists_final_cb, %9 ], [ @H5L__exists_inter_cb, %.preheader ]
  %17 = tail call i32 @H5G_traverse(ptr noundef %3, ptr noundef nonnull %8, i32 noundef 5, ptr noundef nonnull %.017, ptr noundef nonnull %4) #10
  %18 = icmp slt i32 %17, 0
  br i1 %18, label %19, label %25

19:                                               ; preds = %.loopexit
  %20 = load i64, ptr @H5E_LINK_g, align 8
  %21 = load i64, ptr @H5E_CANTGET_g, align 8
  %22 = tail call i32 (ptr, ptr, i32, i64, i64, ptr, ...) @H5E_printf_stack(ptr noundef nonnull @.str, ptr noundef nonnull @__func__.H5L__exists_inter_cb, i32 noundef 1644, i64 noundef %20, i64 noundef %21, ptr noundef nonnull @.str.20) #10
  br label %26

.sink.split:                                      ; preds = %6, %7
  %.sink = phi i8 [ 1, %7 ], [ 0, %6 ]
  %23 = getelementptr inbounds i8, ptr %4, i64 8
  %24 = load ptr, ptr %23, align 8
  store i8 %.sink, ptr %24, align 1
  br label %25

25:                                               ; preds = %.sink.split, %.loopexit
  store i32 0, ptr %5, align 4
  br label %26

26:                                               ; preds = %25, %19
  %.0 = phi i32 [ -1, %19 ], [ 0, %25 ]
  ret i32 %.0
}